; Function Attrs: mustprogress uwtable
define noundef nonnull align 8 dereferenceable(352) ptr @_ZN6icu_7510DateFormataSERKS0_(ptr noundef nonnull returned align 8 dereferenceable(352) %this, ptr noundef nonnull readonly align 8 dereferenceable(352) %other) local_unnamed_addr #3 align 2 {
entry:
  %cmp.not = icmp eq ptr %this, %other
  br i1 %cmp.not, label %if.end28, label %if.then

if.then:                                          ; preds = %entry
  %fCalendar = getelementptr inbounds i8, ptr %this, i64 328
  %0 = load ptr, ptr %fCalendar, align 8
  %isnull = icmp eq ptr %0, null
  br i1 %isnull, label %delete.end, label %delete.notnull

delete.notnull:                                   ; preds = %if.then
  %vtable = load ptr, ptr %0, align 8
  %vfn = getelementptr inbounds i8, ptr %vtable, i64 8
  %1 = load ptr, ptr %vfn, align 8
  tail call void %1(ptr noundef nonnull align 8 dereferenceable(618) %0) #13
  br label %delete.end

delete.end:                                       ; preds = %delete.notnull, %if.then
  %fNumberFormat = getelementptr inbounds i8, ptr %this, i64 336
  %2 = load ptr, ptr %fNumberFormat, align 8
  %isnull2 = icmp eq ptr %2, null
  br i1 %isnull2, label %delete.end6, label %delete.notnull3

delete.notnull3:                                  ; preds = %delete.end
  %vtable4 = load ptr, ptr %2, align 8
  %vfn5 = getelementptr inbounds i8, ptr %vtable4, i64 8
  %3 = load ptr, ptr %vfn5, align 8
  tail call void %3(ptr noundef nonnull align 8 dereferenceable(356) %2) #13
  br label %delete.end6

delete.end6:                                      ; preds = %delete.notnull3, %delete.end
  %fCalendar7 = getelementptr inbounds i8, ptr %other, i64 328
  %4 = load ptr, ptr %fCalendar7, align 8
  %tobool.not = icmp eq ptr %4, null
  br i1 %tobool.not, label %if.end, label %if.then8

if.then8:                                         ; preds = %delete.end6
  %vtable10 = load ptr, ptr %4, align 8
  %vfn11 = getelementptr inbounds i8, ptr %vtable10, i64 24
  %5 = load ptr, ptr %vfn11, align 8
  %call = tail call noundef ptr %5(ptr noundef nonnull align 8 dereferenceable(618) %4)
  br label %if.end

if.end:                                           ; preds = %delete.end6, %if.then8
  %storemerge = phi ptr [ %call, %if.then8 ], [ null, %delete.end6 ]
  store ptr %storemerge, ptr %fCalendar, align 8
  %fNumberFormat14 = getelementptr inbounds i8, ptr %other, i64 336
  %6 = load ptr, ptr %fNumberFormat14, align 8
  %tobool15.not = icmp eq ptr %6, null
  br i1 %tobool15.not, label %if.end24, label %if.then16

if.then16:                                        ; preds = %if.end
  %vtable18 = load ptr, ptr %6, align 8
  %vfn19 = getelementptr inbounds i8, ptr %vtable18, i64 32
  %7 = load ptr, ptr %vfn19, align 8
  %call20 = tail call noundef ptr %7(ptr noundef nonnull align 8 dereferenceable(356) %6)
  br label %if.end24

if.end24:                                         ; preds = %if.end, %if.then16
  %storemerge10 = phi ptr [ %call20, %if.then16 ], [ null, %if.end ]
  store ptr %storemerge10, ptr %fNumberFormat, align 8
  %fBoolFlags = getelementptr inbounds i8, ptr %other, i64 344
  %fBoolFlags25 = getelementptr inbounds i8, ptr %this, i64 344
  %8 = load i32, ptr %fBoolFlags, align 8
  store i32 %8, ptr %fBoolFlags25, align 8
  %fCapitalizationContext = getelementptr inbounds i8, ptr %other, i64 348
  %9 = load i32, ptr %fCapitalizationContext, align 4
  %fCapitalizationContext27 = getelementptr inbounds i8, ptr %this, i64 348
  store i32 %9, ptr %fCapitalizationContext27, align 4
  br label %if.end28

if.end28:                                         ; preds = %if.end24, %entry
  ret ptr %this
}